target datalayout = "e-m:e-p270:32:32-p271:32:32-p272:64:64-i64:64-i128:128-f80:128-n8:16:32:64-S128"
target triple = "x86_64-pc-linux-gnu"

%struct.decoder_data_st = type { ptr, i32, ptr, ptr, ptr, i8 }

; Function Attrs: nounwind uwtable
define internal ptr @get_decoder_store(ptr noundef %0) #0 {
  %2 = alloca ptr, align 8
  store ptr %0, ptr %2, align 8, !tbaa !29
  %3 = load ptr, ptr %2, align 8, !tbaa !29
  %4 = call ptr @ossl_lib_ctx_get_data(ptr noundef %3, i32 noundef 11)
  ret ptr %4
}

; Function Attrs: nounwind uwtable
define internal ptr @get_decoder_from_store(ptr noundef %0, ptr noundef %1, ptr noundef %2) #0 {
  %4 = alloca ptr, align 8
  %5 = alloca ptr, align 8
  %6 = alloca ptr, align 8
  %7 = alloca ptr, align 8
  %8 = alloca ptr, align 8
  %9 = alloca ptr, align 8
  %10 = alloca i32, align 4
  %11 = alloca ptr, align 8
  %12 = alloca ptr, align 8
  %13 = alloca ptr, align 8
  %14 = alloca i64, align 8
  %15 = alloca i32, align 4
  store ptr %0, ptr %5, align 8, !tbaa !10
  store ptr %1, ptr %6, align 8, !tbaa !84
  store ptr %2, ptr %7, align 8, !tbaa !10
  call void @llvm.lifetime.start.p0(i64 8, ptr %8) #7
  %16 = load ptr, ptr %7, align 8, !tbaa !10
  store ptr %16, ptr %8, align 8, !tbaa !53
  call void @llvm.lifetime.start.p0(i64 8, ptr %9) #7
  store ptr null, ptr %9, align 8, !tbaa !10
  call void @llvm.lifetime.start.p0(i64 4, ptr %10) #7
  %17 = load ptr, ptr %8, align 8, !tbaa !53
  %18 = getelementptr inbounds nuw %struct.decoder_data_st, ptr %17, i32 0, i32 1
  %19 = load i32, ptr %18, align 8, !tbaa !58
  store i32 %19, ptr %10, align 4, !tbaa !8
  %20 = icmp eq i32 %19, 0
  br i1 %20, label %21, label %60

21:                                               ; preds = %3
  %22 = load ptr, ptr %8, align 8, !tbaa !53
  %23 = getelementptr inbounds nuw %struct.decoder_data_st, ptr %22, i32 0, i32 2
  %24 = load ptr, ptr %23, align 8, !tbaa !59
  %25 = icmp ne ptr %24, null
  br i1 %25, label %26, label %60

26:                                               ; preds = %21
  call void @llvm.lifetime.start.p0(i64 8, ptr %11) #7
  %27 = load ptr, ptr %8, align 8, !tbaa !53
  %28 = getelementptr inbounds nuw %struct.decoder_data_st, ptr %27, i32 0, i32 0
  %29 = load ptr, ptr %28, align 8, !tbaa !49
  %30 = call ptr @ossl_namemap_stored(ptr noundef %29)
  store ptr %30, ptr %11, align 8, !tbaa !56
  call void @llvm.lifetime.start.p0(i64 8, ptr %12) #7
  %31 = load ptr, ptr %8, align 8, !tbaa !53
  %32 = getelementptr inbounds nuw %struct.decoder_data_st, ptr %31, i32 0, i32 2
  %33 = load ptr, ptr %32, align 8, !tbaa !59
  store ptr %33, ptr %12, align 8, !tbaa !48
  call void @llvm.lifetime.start.p0(i64 8, ptr %13) #7
  %34 = load ptr, ptr %12, align 8, !tbaa !48
  %35 = call ptr @strchr(ptr noundef %34, i32 noundef 58) #8
  store ptr %35, ptr %13, align 8, !tbaa !48
  call void @llvm.lifetime.start.p0(i64 8, ptr %14) #7
  %36 = load ptr, ptr %13, align 8, !tbaa !48
  %37 = icmp eq ptr %36, null
  br i1 %37, label %38, label %41

38:                                               ; preds = %26
  %39 = load ptr, ptr %12, align 8, !tbaa !48
  %40 = call i64 @strlen(ptr noundef %39) #8
  br label %47

41:                                               ; preds = %26
  %42 = load ptr, ptr %13, align 8, !tbaa !48
  %43 = load ptr, ptr %12, align 8, !tbaa !48
  %44 = ptrtoint ptr %42 to i64
  %45 = ptrtoint ptr %43 to i64
  %46 = sub i64 %44, %45
  br label %47

47:                                               ; preds = %41, %38
  %48 = phi i64 [ %40, %38 ], [ %46, %41 ]
  store i64 %48, ptr %14, align 8, !tbaa !76
  %49 = load ptr, ptr %11, align 8, !tbaa !56
  %50 = icmp eq ptr %49, null
  br i1 %50, label %51, label %52

51:                                               ; preds = %47
  store ptr null, ptr %4, align 8
  store i32 1, ptr %15, align 4
  br label %57

52:                                               ; preds = %47
  %53 = load ptr, ptr %11, align 8, !tbaa !56
  %54 = load ptr, ptr %12, align 8, !tbaa !48
  %55 = load i64, ptr %14, align 8, !tbaa !76
  %56 = call i32 @ossl_namemap_name2num_n(ptr noundef %53, ptr noundef %54, i64 noundef %55)
  store i32 %56, ptr %10, align 4, !tbaa !8
  store i32 0, ptr %15, align 4
  br label %57

57:                                               ; preds = %52, %51
  call void @llvm.lifetime.end.p0(i64 8, ptr %14) #7
  call void @llvm.lifetime.end.p0(i64 8, ptr %13) #7
  call void @llvm.lifetime.end.p0(i64 8, ptr %12) #7
  call void @llvm.lifetime.end.p0(i64 8, ptr %11) #7
  %58 = load i32, ptr %15, align 4
  switch i32 %58, label %86 [
    i32 0, label %59
  ]

59:                                               ; preds = %57
  br label %60

60:                                               ; preds = %59, %21, %3
  %61 = load i32, ptr %10, align 4, !tbaa !8
  %62 = icmp eq i32 %61, 0
  br i1 %62, label %63, label %64

63:                                               ; preds = %60
  store ptr null, ptr %4, align 8
  store i32 1, ptr %15, align 4
  br label %86

64:                                               ; preds = %60
  %65 = load ptr, ptr %5, align 8, !tbaa !10
  %66 = icmp eq ptr %65, null
  br i1 %66, label %67, label %74

67:                                               ; preds = %64
  %68 = load ptr, ptr %8, align 8, !tbaa !53
  %69 = getelementptr inbounds nuw %struct.decoder_data_st, ptr %68, i32 0, i32 0
  %70 = load ptr, ptr %69, align 8, !tbaa !49
  %71 = call ptr @get_decoder_store(ptr noundef %70)
  store ptr %71, ptr %5, align 8, !tbaa !10
  %72 = icmp eq ptr %71, null
  br i1 %72, label %73, label %74

73:                                               ; preds = %67
  store ptr null, ptr %4, align 8
  store i32 1, ptr %15, align 4
  br label %86

74:                                               ; preds = %67, %64
  %75 = load ptr, ptr %5, align 8, !tbaa !10
  %76 = load i32, ptr %10, align 4, !tbaa !8
  %77 = load ptr, ptr %8, align 8, !tbaa !53
  %78 = getelementptr inbounds nuw %struct.decoder_data_st, ptr %77, i32 0, i32 3
  %79 = load ptr, ptr %78, align 8, !tbaa !60
  %80 = load ptr, ptr %6, align 8, !tbaa !84
  %81 = call i32 @ossl_method_store_fetch(ptr noundef %75, i32 noundef %76, ptr noundef %79, ptr noundef %80, ptr noundef %9)
  %82 = icmp ne i32 %81, 0
  br i1 %82, label %84, label %83

83:                                               ; preds = %74
  store ptr null, ptr %4, align 8
  store i32 1, ptr %15, align 4
  br label %86

84:                                               ; preds = %74
  %85 = load ptr, ptr %9, align 8, !tbaa !10
  store ptr %85, ptr %4, align 8
  store i32 1, ptr %15, align 4
  br label %86

86:                                               ; preds = %84, %83, %73, %63, %57
  call void @llvm.lifetime.end.p0(i64 4, ptr %10) #7
  call void @llvm.lifetime.end.p0(i64 8, ptr %9) #7
  call void @llvm.lifetime.end.p0(i64 8, ptr %8) #7
  %87 = load ptr, ptr %4, align 8
  ret ptr %87
}